target datalayout = "e-m:e-p270:32:32-p271:32:32-p272:64:64-i64:64-i128:128-f80:128-n8:16:32:64-S128"
target triple = "x86_64-pc-linux-gnu"

@Device2PCS16 = internal constant [4 x i32] [i32 1093812784, i32 1093812785, i32 1093812786, i32 1093812785], align 16
@PCS2Device16 = internal constant [4 x i32] [i32 1110589744, i32 1110589745, i32 1110589746, i32 1110589745], align 16
@.str = private unnamed_addr constant [26 x i8] c"Unexpected direction (%d)\00", align 1

; Function Attrs: nounwind uwtable
define hidden i32 @cmsIsIntentSupported(ptr noundef %0, i32 noundef %1, i32 noundef %2) #0 {
  %4 = alloca i32, align 4
  %5 = alloca ptr, align 8
  %6 = alloca i32, align 4
  %7 = alloca i32, align 4
  store ptr %0, ptr %5, align 8
  store i32 %1, ptr %6, align 4
  store i32 %2, ptr %7, align 4
  %8 = load ptr, ptr %5, align 8
  %9 = load i32, ptr %6, align 4
  %10 = load i32, ptr %7, align 4
  %11 = call i32 @cmsIsCLUT(ptr noundef %8, i32 noundef %9, i32 noundef %10)
  %12 = icmp ne i32 %11, 0
  br i1 %12, label %13, label %14

13:                                               ; preds = %3
  store i32 1, ptr %4, align 4
  br label %17

14:                                               ; preds = %3
  %15 = load ptr, ptr %5, align 8
  %16 = call i32 @cmsIsMatrixShaper(ptr noundef %15)
  store i32 %16, ptr %4, align 4
  br label %17

17:                                               ; preds = %14, %13
  %18 = load i32, ptr %4, align 4
  ret i32 %18
}

; Function Attrs: nounwind uwtable
define hidden i32 @cmsIsCLUT(ptr noundef %0, i32 noundef %1, i32 noundef %2) #0 {
  %4 = alloca i32, align 4
  %5 = alloca ptr, align 8
  %6 = alloca i32, align 4
  %7 = alloca i32, align 4
  %8 = alloca ptr, align 8
  store ptr %0, ptr %5, align 8
  store i32 %1, ptr %6, align 4
  store i32 %2, ptr %7, align 4
  %9 = load ptr, ptr %5, align 8
  %10 = call i32 @cmsGetDeviceClass(ptr noundef %9)
  %11 = icmp eq i32 %10, 1818848875
  br i1 %11, label %12, label %18

12:                                               ; preds = %3
  %13 = load ptr, ptr %5, align 8
  %14 = call i32 @cmsGetHeaderRenderingIntent(ptr noundef %13)
  %15 = load i32, ptr %6, align 4
  %16 = icmp eq i32 %14, %15
  %17 = zext i1 %16 to i32
  store i32 %17, ptr %4, align 4
  br label %50

18:                                               ; preds = %3
  %19 = load i32, ptr %7, align 4
  switch i32 %19, label %34 [
    i32 0, label %20
    i32 1, label %21
    i32 2, label %22
  ]

20:                                               ; preds = %18
  store ptr @Device2PCS16, ptr %8, align 8
  br label %38

21:                                               ; preds = %18
  store ptr @PCS2Device16, ptr %8, align 8
  br label %38

22:                                               ; preds = %18
  %23 = load ptr, ptr %5, align 8
  %24 = load i32, ptr %6, align 4
  %25 = call i32 @cmsIsIntentSupported(ptr noundef %23, i32 noundef %24, i32 noundef 0)
  %26 = icmp ne i32 %25, 0
  br i1 %26, label %27, label %31

27:                                               ; preds = %22
  %28 = load ptr, ptr %5, align 8
  %29 = call i32 @cmsIsIntentSupported(ptr noundef %28, i32 noundef 1, i32 noundef 1)
  %30 = icmp ne i32 %29, 0
  br label %31

31:                                               ; preds = %27, %22
  %32 = phi i1 [ false, %22 ], [ %30, %27 ]
  %33 = zext i1 %32 to i32
  store i32 %33, ptr %4, align 4
  br label %50

34:                                               ; preds = %18
  %35 = load ptr, ptr %5, align 8
  %36 = call ptr @cmsGetProfileContextID(ptr noundef %35)
  %37 = load i32, ptr %7, align 4
  call void (ptr, i32, ptr, ...) @cmsSignalError(ptr noundef %36, i32 noundef 2, ptr noundef @.str, i32 noundef %37)
  store i32 0, ptr %4, align 4
  br label %50

38:                                               ; preds = %21, %20
  %39 = load i32, ptr %6, align 4
  %40 = icmp ugt i32 %39, 3
  br i1 %40, label %41, label %42

41:                                               ; preds = %38
  store i32 0, ptr %4, align 4
  br label %50

42:                                               ; preds = %38
  %43 = load ptr, ptr %5, align 8
  %44 = load ptr, ptr %8, align 8
  %45 = load i32, ptr %6, align 4
  %46 = zext i32 %45 to i64
  %47 = getelementptr inbounds i32, ptr %44, i64 %46
  %48 = load i32, ptr %47, align 4
  %49 = call i32 @cmsIsTag(ptr noundef %43, i32 noundef %48)
  store i32 %49, ptr %4, align 4
  br label %50

50:                                               ; preds = %42, %41, %34, %31, %12
  %51 = load i32, ptr %4, align 4
  ret i32 %51
}