; Function Attrs: nounwind uwtable
define hidden i32 @cmsIsCLUT(ptr noundef %0, i32 noundef %1, i32 noundef %2) local_unnamed_addr #0 {
  %4 = tail call i32 @cmsGetDeviceClass(ptr noundef %0) #4
  %5 = icmp eq i32 %4, 1818848875
  br i1 %5, label %6, label %10

6:                                                ; preds = %3
  %7 = tail call i32 @cmsGetHeaderRenderingIntent(ptr noundef %0) #4
  %8 = icmp eq i32 %7, %1
  %9 = zext i1 %8 to i32
  br label %cmsIsIntentSupported.exit17

10:                                               ; preds = %3
  switch i32 %2, label %39 [
    i32 0, label %41
    i32 1, label %11
    i32 2, label %12
  ]

11:                                               ; preds = %10
  br label %41

12:                                               ; preds = %10
  %13 = tail call i32 @cmsGetDeviceClass(ptr noundef %0) #4
  %14 = icmp eq i32 %13, 1818848875
  br i1 %14, label %15, label %19

15:                                               ; preds = %12
  %16 = tail call i32 @cmsGetHeaderRenderingIntent(ptr noundef %0) #4
  %17 = icmp eq i32 %16, %1
  %18 = zext i1 %17 to i32
  br label %cmsIsCLUT.exit

19:                                               ; preds = %12
  %20 = icmp ugt i32 %1, 3
  br i1 %20, label %cmsIsIntentSupported.exit, label %21

21:                                               ; preds = %19
  %22 = zext nneg i32 %1 to i64
  %23 = getelementptr inbounds i32, ptr @Device2PCS16, i64 %22
  %24 = load i32, ptr %23, align 4
  %25 = tail call i32 @cmsIsTag(ptr noundef %0, i32 noundef %24) #4
  br label %cmsIsCLUT.exit

cmsIsCLUT.exit:                                   ; preds = %15, %21
  %.013.i = phi i32 [ %18, %15 ], [ %25, %21 ]
  %.not.i = icmp eq i32 %.013.i, 0
  br i1 %.not.i, label %cmsIsIntentSupported.exit, label %cmsIsIntentSupported.exit.thread

cmsIsIntentSupported.exit:                        ; preds = %19, %cmsIsCLUT.exit
  %26 = tail call i32 @cmsIsMatrixShaper(ptr noundef %0)
  %.not = icmp eq i32 %26, 0
  br i1 %.not, label %cmsIsIntentSupported.exit17, label %cmsIsIntentSupported.exit.thread

cmsIsIntentSupported.exit.thread:                 ; preds = %cmsIsCLUT.exit, %cmsIsIntentSupported.exit
  %27 = tail call i32 @cmsGetDeviceClass(ptr noundef %0) #4
  %28 = icmp eq i32 %27, 1818848875
  br i1 %28, label %29, label %33

29:                                               ; preds = %cmsIsIntentSupported.exit.thread
  %30 = tail call i32 @cmsGetHeaderRenderingIntent(ptr noundef %0) #4
  %31 = icmp eq i32 %30, 1
  %32 = zext i1 %31 to i32
  br label %cmsIsCLUT.exit21

33:                                               ; preds = %cmsIsIntentSupported.exit.thread
  %34 = tail call i32 @cmsIsTag(ptr noundef %0, i32 noundef 1110589745) #4
  br label %cmsIsCLUT.exit21

cmsIsCLUT.exit21:                                 ; preds = %29, %33
  %.013.i20 = phi i32 [ %32, %29 ], [ %34, %33 ]
  %.not.i15 = icmp eq i32 %.013.i20, 0
  br i1 %.not.i15, label %35, label %cmsIsIntentSupported.exit17

35:                                               ; preds = %cmsIsCLUT.exit21
  %36 = tail call i32 @cmsIsMatrixShaper(ptr noundef %0)
  %37 = icmp ne i32 %36, 0
  %38 = zext i1 %37 to i32
  br label %cmsIsIntentSupported.exit17

39:                                               ; preds = %10
  %40 = tail call ptr @cmsGetProfileContextID(ptr noundef %0) #4
  tail call void (ptr, i32, ptr, ...) @cmsSignalError(ptr noundef %40, i32 noundef 2, ptr noundef nonnull @.str, i32 noundef %2) #4
  br label %cmsIsIntentSupported.exit17

41:                                               ; preds = %10, %11
  %.0 = phi ptr [ @PCS2Device16, %11 ], [ @Device2PCS16, %10 ]
  %42 = icmp ugt i32 %1, 3
  br i1 %42, label %cmsIsIntentSupported.exit17, label %43

43:                                               ; preds = %41
  %44 = zext nneg i32 %1 to i64
  %45 = getelementptr inbounds i32, ptr %.0, i64 %44
  %46 = load i32, ptr %45, align 4
  %47 = tail call i32 @cmsIsTag(ptr noundef %0, i32 noundef %46) #4
  br label %cmsIsIntentSupported.exit17

cmsIsIntentSupported.exit17:                      ; preds = %35, %cmsIsCLUT.exit21, %41, %cmsIsIntentSupported.exit, %43, %39, %6
  %.013 = phi i32 [ %9, %6 ], [ 0, %39 ], [ %47, %43 ], [ 0, %cmsIsIntentSupported.exit ], [ 0, %41 ], [ %38, %35 ], [ 1, %cmsIsCLUT.exit21 ]
  ret i32 %.013
}